; ModuleID = 'source-C-CXX/42/660.c'
source_filename = "source-C-CXX/42/660.c"
target datalayout = "e-m:e-p270:32:32-p271:32:32-p272:64:64-i64:64-f80:128-n8:16:32:64-S128"
target triple = "x86_64-pc-linux-gnu"

@.str = private unnamed_addr constant [3 x i8] c"%d\00", align 1
@.str.1 = private unnamed_addr constant [7 x i8] c"%d %d\0A\00", align 1

; Function Attrs: nofree nounwind sspstrong uwtable
define dso_local i32 @main() local_unnamed_addr #0 {
  %1 = alloca i32, align 4
  %2 = bitcast i32* %1 to i8*
  call void @llvm.lifetime.start.p0i8(i64 4, i8* nonnull %2) #3
  %3 = call i32 (i8*, ...) @__isoc99_scanf(i8* getelementptr inbounds ([3 x i8], [3 x i8]* @.str, i64 0, i64 0), i32* nonnull %1)
  %4 = load i32, i32* %1, align 4, !tbaa !5
  %5 = icmp slt i32 %4, 6
  br i1 %5, label %43, label %6

6:                                                ; preds = %0, %37
  %7 = phi i32 [ %38, %37 ], [ %4, %0 ]
  %8 = phi i32 [ %39, %37 ], [ 0, %0 ]
  %9 = phi i32 [ %40, %37 ], [ 3, %0 ]
  %10 = lshr i32 %9, 1
  %11 = add nuw nsw i32 %10, 1
  br label %15

12:                                               ; preds = %15
  %13 = add nuw nsw i32 %16, 1
  %14 = icmp eq i32 %16, %11
  br i1 %14, label %19, label %15, !llvm.loop !9

15:                                               ; preds = %6, %12
  %16 = phi i32 [ %13, %12 ], [ 2, %6 ]
  %17 = urem i32 %9, %16
  %18 = icmp eq i32 %17, 0
  br i1 %18, label %37, label %12

19:                                               ; preds = %12
  %20 = sub nsw i32 %7, %9
  %21 = icmp slt i32 %20, 2
  br i1 %21, label %32, label %22

22:                                               ; preds = %19
  %23 = lshr i32 %20, 1
  %24 = add nuw nsw i32 %23, 1
  br label %28

25:                                               ; preds = %28
  %26 = add nuw nsw i32 %29, 1
  %27 = icmp eq i32 %29, %24
  br i1 %27, label %34, label %28, !llvm.loop !11

28:                                               ; preds = %22, %25
  %29 = phi i32 [ %26, %25 ], [ 2, %22 ]
  %30 = srem i32 %20, %29
  %31 = icmp eq i32 %30, 0
  br i1 %31, label %37, label %25

32:                                               ; preds = %19
  %33 = icmp eq i32 %8, 0
  br i1 %33, label %37, label %34

34:                                               ; preds = %25, %32
  %35 = call i32 (i8*, ...) @printf(i8* nonnull dereferenceable(1) getelementptr inbounds ([7 x i8], [7 x i8]* @.str.1, i64 0, i64 0), i32 %9, i32 %20)
  %36 = load i32, i32* %1, align 4, !tbaa !5
  br label %37

37:                                               ; preds = %15, %28, %32, %34
  %38 = phi i32 [ %36, %34 ], [ %7, %32 ], [ %7, %28 ], [ %7, %15 ]
  %39 = phi i32 [ 1, %34 ], [ 0, %32 ], [ 0, %28 ], [ %8, %15 ]
  %40 = add nuw nsw i32 %9, 1
  %41 = sdiv i32 %38, 2
  %42 = icmp slt i32 %9, %41
  br i1 %42, label %6, label %43, !llvm.loop !12

43:                                               ; preds = %37, %0
  call void @llvm.lifetime.end.p0i8(i64 4, i8* nonnull %2) #3
  ret i32 0
}

; Function Attrs: argmemonly mustprogress nofree nosync nounwind willreturn
declare void @llvm.lifetime.start.p0i8(i64 immarg, i8* nocapture) #1

; Function Attrs: nofree nounwind
declare noundef i32 @__isoc99_scanf(i8* nocapture noundef readonly, ...) local_unnamed_addr #2

; Function Attrs: nofree nounwind
declare noundef i32 @printf(i8* nocapture noundef readonly, ...) local_unnamed_addr #2

; Function Attrs: argmemonly mustprogress nofree nosync nounwind willreturn
declare void @llvm.lifetime.end.p0i8(i64 immarg, i8* nocapture) #1


!llvm.module.flags = !{!0, !1, !2, !3}
!llvm.ident = !{!4}

!0 = !{i32 1, !"wchar_size", i32 4}
!1 = !{i32 7, !"PIC Level", i32 2}
!2 = !{i32 7, !"PIE Level", i32 2}
!3 = !{i32 7, !"uwtable", i32 1}
!4 = !{!"clang version 13.0.0"}
!5 = !{!6, !6, i64 0}
!6 = !{!"int", !7, i64 0}
!7 = !{!"omnipotent char", !8, i64 0}
!8 = !{!"Simple C/C++ TBAA"}
!9 = distinct !{!9, !10}
!10 = !{!"llvm.loop.mustprogress"}
!11 = distinct !{!11, !10}
!12 = distinct !{!12, !10}
